target datalayout = "e-m:e-p270:32:32-p271:32:32-p272:64:64-i64:64-i128:128-f80:128-n8:16:32:64-S128"
target triple = "x86_64-pc-linux-gnu"

; Function Attrs: nounwind uwtable
define dso_local i32 @stringmatchlen(ptr noundef %0, i32 noundef %1, ptr noundef %2, i32 noundef %3, i32 noundef %4) #0 {
  %6 = alloca ptr, align 8
  %7 = alloca i32, align 4
  %8 = alloca ptr, align 8
  %9 = alloca i32, align 4
  %10 = alloca i32, align 4
  %11 = alloca i32, align 4
  store ptr %0, ptr %6, align 8, !tbaa !5
  store i32 %1, ptr %7, align 4, !tbaa !10
  store ptr %2, ptr %8, align 8, !tbaa !5
  store i32 %3, ptr %9, align 4, !tbaa !10
  store i32 %4, ptr %10, align 4, !tbaa !10
  call void @llvm.lifetime.start.p0(i64 4, ptr %11) #13
  store i32 0, ptr %11, align 4, !tbaa !10
  %12 = load ptr, ptr %6, align 8, !tbaa !5
  %13 = load i32, ptr %7, align 4, !tbaa !10
  %14 = load ptr, ptr %8, align 8, !tbaa !5
  %15 = load i32, ptr %9, align 4, !tbaa !10
  %16 = load i32, ptr %10, align 4, !tbaa !10
  %17 = call i32 @stringmatchlen_impl(ptr noundef %12, i32 noundef %13, ptr noundef %14, i32 noundef %15, i32 noundef %16, ptr noundef %11, i32 noundef 0)
  call void @llvm.lifetime.end.p0(i64 4, ptr %11) #13
  ret i32 %17
}

; Function Attrs: nounwind uwtable
define dso_local i32 @stringmatchlen_fuzz_test() #0 {
  %1 = alloca [32 x i8], align 16
  %2 = alloca [32 x i8], align 16
  %3 = alloca i32, align 4
  %4 = alloca i32, align 4
  %5 = alloca i32, align 4
  %6 = alloca i32, align 4
  %7 = alloca i32, align 4
  %8 = alloca i32, align 4
  call void @llvm.lifetime.start.p0(i64 32, ptr %1) #13
  call void @llvm.lifetime.start.p0(i64 32, ptr %2) #13
  call void @llvm.lifetime.start.p0(i64 4, ptr %3) #13
  store i32 10000000, ptr %3, align 4, !tbaa !10
  call void @llvm.lifetime.start.p0(i64 4, ptr %4) #13
  store i32 0, ptr %4, align 4, !tbaa !10
  br label %9

9:                                                ; preds = %53, %0
  %10 = load i32, ptr %3, align 4, !tbaa !10
  %11 = add nsw i32 %10, -1
  store i32 %11, ptr %3, align 4, !tbaa !10
  %12 = icmp ne i32 %10, 0
  br i1 %12, label %13, label %61

13:                                               ; preds = %9
  call void @llvm.lifetime.start.p0(i64 4, ptr %5) #13
  %14 = call i32 @rand() #13
  %15 = sext i32 %14 to i64
  %16 = urem i64 %15, 32
  %17 = trunc i64 %16 to i32
  store i32 %17, ptr %5, align 4, !tbaa !10
  call void @llvm.lifetime.start.p0(i64 4, ptr %6) #13
  %18 = call i32 @rand() #13
  %19 = sext i32 %18 to i64
  %20 = urem i64 %19, 32
  %21 = trunc i64 %20 to i32
  store i32 %21, ptr %6, align 4, !tbaa !10
  call void @llvm.lifetime.start.p0(i64 4, ptr %7) #13
  store i32 0, ptr %7, align 4, !tbaa !10
  br label %22

22:                                               ; preds = %34, %13
  %23 = load i32, ptr %7, align 4, !tbaa !10
  %24 = load i32, ptr %5, align 4, !tbaa !10
  %25 = icmp slt i32 %23, %24
  br i1 %25, label %27, label %26

26:                                               ; preds = %22
  call void @llvm.lifetime.end.p0(i64 4, ptr %7) #13
  br label %37

27:                                               ; preds = %22
  %28 = call i32 @rand() #13
  %29 = srem i32 %28, 128
  %30 = trunc i32 %29 to i8
  %31 = load i32, ptr %7, align 4, !tbaa !10
  %32 = sext i32 %31 to i64
  %33 = getelementptr inbounds [32 x i8], ptr %1, i64 0, i64 %32
  store i8 %30, ptr %33, align 1, !tbaa !12
  br label %34

34:                                               ; preds = %27
  %35 = load i32, ptr %7, align 4, !tbaa !10
  %36 = add nsw i32 %35, 1
  store i32 %36, ptr %7, align 4, !tbaa !10
  br label %22, !llvm.loop !21

37:                                               ; preds = %26
  call void @llvm.lifetime.start.p0(i64 4, ptr %8) #13
  store i32 0, ptr %8, align 4, !tbaa !10
  br label %38

38:                                               ; preds = %50, %37
  %39 = load i32, ptr %8, align 4, !tbaa !10
  %40 = load i32, ptr %6, align 4, !tbaa !10
  %41 = icmp slt i32 %39, %40
  br i1 %41, label %43, label %42

42:                                               ; preds = %38
  call void @llvm.lifetime.end.p0(i64 4, ptr %8) #13
  br label %53

43:                                               ; preds = %38
  %44 = call i32 @rand() #13
  %45 = srem i32 %44, 128
  %46 = trunc i32 %45 to i8
  %47 = load i32, ptr %8, align 4, !tbaa !10
  %48 = sext i32 %47 to i64
  %49 = getelementptr inbounds [32 x i8], ptr %2, i64 0, i64 %48
  store i8 %46, ptr %49, align 1, !tbaa !12
  br label %50

50:                                               ; preds = %43
  %51 = load i32, ptr %8, align 4, !tbaa !10
  %52 = add nsw i32 %51, 1
  store i32 %52, ptr %8, align 4, !tbaa !10
  br label %38, !llvm.loop !22

53:                                               ; preds = %42
  %54 = getelementptr inbounds [32 x i8], ptr %2, i64 0, i64 0
  %55 = load i32, ptr %6, align 4, !tbaa !10
  %56 = getelementptr inbounds [32 x i8], ptr %1, i64 0, i64 0
  %57 = load i32, ptr %5, align 4, !tbaa !10
  %58 = call i32 @stringmatchlen(ptr noundef %54, i32 noundef %55, ptr noundef %56, i32 noundef %57, i32 noundef 0)
  %59 = load i32, ptr %4, align 4, !tbaa !10
  %60 = add nsw i32 %59, %58
  store i32 %60, ptr %4, align 4, !tbaa !10
  call void @llvm.lifetime.end.p0(i64 4, ptr %6) #13
  call void @llvm.lifetime.end.p0(i64 4, ptr %5) #13
  br label %9, !llvm.loop !23

61:                                               ; preds = %9
  %62 = load i32, ptr %4, align 4, !tbaa !10
  call void @llvm.lifetime.end.p0(i64 4, ptr %4) #13
  call void @llvm.lifetime.end.p0(i64 4, ptr %3) #13
  call void @llvm.lifetime.end.p0(i64 32, ptr %2) #13
  call void @llvm.lifetime.end.p0(i64 32, ptr %1) #13
  ret i32 %62
}