; Function Attrs: nounwind uwtable
define dso_local i32 @stringmatchlen_fuzz_test() local_unnamed_addr #4 {
  %1 = alloca i32, align 4
  %2 = alloca [32 x i8], align 16
  %3 = alloca [32 x i8], align 16
  call void @llvm.lifetime.start.p0(i64 32, ptr nonnull %2) #29
  call void @llvm.lifetime.start.p0(i64 32, ptr nonnull %3) #29
  br label %4

4:                                                ; preds = %0, %._crit_edge
  %5 = phi i32 [ 9999999, %0 ], [ %16, %._crit_edge ]
  %.01521 = phi i32 [ 0, %0 ], [ %15, %._crit_edge ]
  %6 = tail call i32 @rand() #29
  %7 = and i32 %6, 31
  %8 = tail call i32 @rand() #29
  %9 = and i32 %8, 31
  %.not22 = icmp eq i32 %7, 0
  br i1 %.not22, label %.preheader, label %.lr.ph.preheader

.lr.ph.preheader:                                 ; preds = %4
  %wide.trip.count = zext nneg i32 %7 to i64
  br label %.lr.ph

.preheader:                                       ; preds = %.lr.ph, %4
  %.not23 = icmp eq i32 %9, 0
  br i1 %.not23, label %._crit_edge, label %.lr.ph20.preheader

.lr.ph20.preheader:                               ; preds = %.preheader
  %wide.trip.count28 = zext nneg i32 %9 to i64
  br label %.lr.ph20

.lr.ph:                                           ; preds = %.lr.ph.preheader, %.lr.ph
  %indvars.iv = phi i64 [ 0, %.lr.ph.preheader ], [ %indvars.iv.next, %.lr.ph ]
  %10 = tail call i32 @rand() #29
  %11 = srem i32 %10, 128
  %12 = trunc nsw i32 %11 to i8
  %13 = getelementptr inbounds nuw [32 x i8], ptr %2, i64 0, i64 %indvars.iv
  store i8 %12, ptr %13, align 1, !tbaa !9
  %indvars.iv.next = add nuw nsw i64 %indvars.iv, 1
  %exitcond.not = icmp eq i64 %indvars.iv.next, %wide.trip.count
  br i1 %exitcond.not, label %.preheader, label %.lr.ph, !llvm.loop !19

._crit_edge:                                      ; preds = %.lr.ph20, %.preheader
  call void @llvm.lifetime.start.p0(i64 4, ptr nonnull %1) #29
  store i32 0, ptr %1, align 4, !tbaa !5
  %14 = call fastcc range(i32 0, 2) i32 @stringmatchlen_impl(ptr noundef nonnull readonly %3, i32 noundef %9, ptr noundef nonnull readonly %2, i32 noundef %7, i32 noundef 0, ptr noundef %1, i32 noundef 0)
  call void @llvm.lifetime.end.p0(i64 4, ptr nonnull %1) #29
  %15 = add nuw nsw i32 %14, %.01521
  %16 = add nsw i32 %5, -1
  %.not = icmp eq i32 %5, 0
  br i1 %.not, label %21, label %4, !llvm.loop !20

.lr.ph20:                                         ; preds = %.lr.ph20.preheader, %.lr.ph20
  %indvars.iv25 = phi i64 [ 0, %.lr.ph20.preheader ], [ %indvars.iv.next26, %.lr.ph20 ]
  %17 = tail call i32 @rand() #29
  %18 = srem i32 %17, 128
  %19 = trunc nsw i32 %18 to i8
  %20 = getelementptr inbounds nuw [32 x i8], ptr %3, i64 0, i64 %indvars.iv25
  store i8 %19, ptr %20, align 1, !tbaa !9
  %indvars.iv.next26 = add nuw nsw i64 %indvars.iv25, 1
  %exitcond29.not = icmp eq i64 %indvars.iv.next26, %wide.trip.count28
  br i1 %exitcond29.not, label %._crit_edge, label %.lr.ph20, !llvm.loop !21

21:                                               ; preds = %._crit_edge
  call void @llvm.lifetime.end.p0(i64 32, ptr nonnull %3) #29
  call void @llvm.lifetime.end.p0(i64 32, ptr nonnull %2) #29
  ret i32 %15
}